target datalayout = "e-m:e-p270:32:32-p271:32:32-p272:64:64-i64:64-i128:128-f80:128-n8:16:32:64-S128"
target triple = "x86_64-unknown-linux-gnu"

%"class.logging::CheckOpResult" = type { ptr }
%"class.logging::LogMessage" = type <{ i32, [4 x i8], %"class.std::__cxx11::basic_ostringstream", i64, ptr, i32, [4 x i8] }>
%"class.std::__cxx11::basic_ostringstream" = type { %"class.std::basic_ostream.base", %"class.std::__cxx11::basic_stringbuf", %"class.std::basic_ios" }
%"class.std::basic_ostream.base" = type { ptr }
%"class.std::__cxx11::basic_stringbuf" = type { %"class.std::basic_streambuf", i32, %"class.std::__cxx11::basic_string" }
%"class.std::basic_streambuf" = type { ptr, ptr, ptr, ptr, ptr, ptr, ptr, %"class.std::locale" }
%"class.std::locale" = type { ptr }
%"class.std::__cxx11::basic_string" = type { %"struct.std::__cxx11::basic_string<char>::_Alloc_hider", i64, %union.anon }
%"struct.std::__cxx11::basic_string<char>::_Alloc_hider" = type { ptr }
%union.anon = type { i64, [8 x i8] }
%"class.std::basic_ios" = type { %"class.std::ios_base", ptr, i8, i8, ptr, ptr, ptr, ptr }
%"class.std::ios_base" = type { ptr, i64, i64, i32, i32, i32, ptr, %"struct.std::ios_base::_Words", [8 x %"struct.std::ios_base::_Words"], i32, ptr, %"class.std::locale" }
%"struct.std::ios_base::_Words" = type { ptr, i64 }
%"class.net::AeadBaseDecrypter" = type { %"class.net::QuicDecrypter", ptr, i64, i64, i64, i8, [32 x i8], [4 x i8], %"class.net::ScopedEVPAEADCtx" }
%"class.net::QuicDecrypter" = type { ptr }
%"class.net::ScopedEVPAEADCtx" = type { %struct.evp_aead_ctx_st }
%struct.evp_aead_ctx_st = type { ptr, ptr }
%"class.base::BasicStringPiece" = type { ptr, i64 }

@.str = private unnamed_addr constant [141 x i8] c"generated/home/dtcxzyw/WorkSpace/Projects/compilers/llvm-opt-benchmark/bench/libquic/libquic/src/net/quic/core/crypto/aead_base_decrypter.cc\00", align 1

; Function Attrs: mustprogress nounwind uwtable
define linkonce_odr dso_local noundef nonnull align 8 dereferenceable(8) ptr @_ZN7logging10LogMessage6streamEv(ptr noundef nonnull align 8 dereferenceable(404) %this) #1 comdat align 2 {
entry:
  %this.addr = alloca ptr, align 8
  store ptr %this, ptr %this.addr, align 8
  %this1 = load ptr, ptr %this.addr, align 8
  %stream_ = getelementptr inbounds %"class.logging::LogMessage", ptr %this1, i32 0, i32 2
  ret ptr %stream_
}

; Function Attrs: mustprogress nounwind uwtable
define linkonce_odr dso_local noundef ptr @_ZN7logging13CheckOpResult7messageB5cxx11Ev(ptr noundef nonnull align 8 dereferenceable(8) %this) #1 comdat align 2 {
entry:
  %this.addr = alloca ptr, align 8
  store ptr %this, ptr %this.addr, align 8
  %this1 = load ptr, ptr %this.addr, align 8
  %message_ = getelementptr inbounds %"class.logging::CheckOpResult", ptr %this1, i32 0, i32 0
  %0 = load ptr, ptr %message_, align 8
  ret ptr %0
}

; Function Attrs: mustprogress nounwind uwtable
define linkonce_odr dso_local noundef zeroext i1 @_ZNK7logging13CheckOpResultcvbEv(ptr noundef nonnull align 8 dereferenceable(8) %this) #1 comdat align 2 {
entry:
  %this.addr = alloca ptr, align 8
  store ptr %this, ptr %this.addr, align 8
  %this1 = load ptr, ptr %this.addr, align 8
  %message_ = getelementptr inbounds %"class.logging::CheckOpResult", ptr %this1, i32 0, i32 0
  %0 = load ptr, ptr %message_, align 8
  %tobool = icmp ne ptr %0, null
  %lnot = xor i1 %tobool, true
  ret i1 %lnot
}

; Function Attrs: mustprogress nounwind uwtable
define linkonce_odr dso_local void @_ZN7logging13CheckOpResultC2EPNSt7__cxx1112basic_stringIcSt11char_traitsIcESaIcEEE(ptr noundef nonnull align 8 dereferenceable(8) %this, ptr noundef %message) unnamed_addr #1 comdat align 2 {
entry:
  %this.addr = alloca ptr, align 8
  %message.addr = alloca ptr, align 8
  store ptr %this, ptr %this.addr, align 8
  store ptr %message, ptr %message.addr, align 8
  %this1 = load ptr, ptr %this.addr, align 8
  %message_ = getelementptr inbounds %"class.logging::CheckOpResult", ptr %this1, i32 0, i32 0
  %0 = load ptr, ptr %message.addr, align 8
  store ptr %0, ptr %message_, align 8
  ret void
}

; Function Attrs: mustprogress uwtable
define dso_local noundef zeroext i1 @_ZN3net17AeadBaseDecrypter14SetNoncePrefixEN4base16BasicStringPieceINSt7__cxx1112basic_stringIcSt11char_traitsIcESaIcEEEEE(ptr noundef nonnull align 8 dereferenceable(96) %this, ptr %nonce_prefix.coerce0, i64 %nonce_prefix.coerce1) unnamed_addr #0 align 2 personality ptr @__gxx_personality_v0 {
entry:
  %retval = alloca i1, align 1
  %nonce_prefix = alloca %"class.base::BasicStringPiece", align 8
  %this.addr = alloca ptr, align 8
  %true_if_passed = alloca %"class.logging::CheckOpResult", align 8
  %ref.tmp = alloca %"class.logging::LogMessage", align 8
  %exn.slot = alloca ptr, align 8
  %ehselector.slot = alloca i32, align 4
  %0 = getelementptr inbounds { ptr, i64 }, ptr %nonce_prefix, i32 0, i32 0
  store ptr %nonce_prefix.coerce0, ptr %0, align 8
  %1 = getelementptr inbounds { ptr, i64 }, ptr %nonce_prefix, i32 0, i32 1
  store i64 %nonce_prefix.coerce1, ptr %1, align 8
  store ptr %this, ptr %this.addr, align 8
  %this1 = load ptr, ptr %this.addr, align 8
  call void @_ZN7logging13CheckOpResultC2EPNSt7__cxx1112basic_stringIcSt11char_traitsIcESaIcEEE(ptr noundef nonnull align 8 dereferenceable(8) %true_if_passed, ptr noundef null)
  %call = call noundef zeroext i1 @_ZNK7logging13CheckOpResultcvbEv(ptr noundef nonnull align 8 dereferenceable(8) %true_if_passed)
  br i1 %call, label %if.then, label %if.else

if.then:                                          ; preds = %entry
  br label %if.end

if.else:                                          ; preds = %entry
  %call2 = call noundef ptr @_ZN7logging13CheckOpResult7messageB5cxx11Ev(ptr noundef nonnull align 8 dereferenceable(8) %true_if_passed)
  call void @_ZN7logging10LogMessageC1EPKciiPNSt7__cxx1112basic_stringIcSt11char_traitsIcESaIcEEE(ptr noundef nonnull align 8 dereferenceable(404) %ref.tmp, ptr noundef @.str, i32 noundef 80, i32 noundef 0, ptr noundef %call2)
  %call3 = invoke noundef nonnull align 8 dereferenceable(8) ptr @_ZN7logging10LogMessage6streamEv(ptr noundef nonnull align 8 dereferenceable(404) %ref.tmp)
          to label %invoke.cont unwind label %lpad

invoke.cont:                                      ; preds = %if.else
  call void @_ZN7logging10LogMessageD1Ev(ptr noundef nonnull align 8 dereferenceable(404) %ref.tmp) #6
  br label %if.end

lpad:                                             ; preds = %if.else
  %2 = landingpad { ptr, i32 }
          cleanup
  %3 = extractvalue { ptr, i32 } %2, 0
  store ptr %3, ptr %exn.slot, align 8
  %4 = extractvalue { ptr, i32 } %2, 1
  store i32 %4, ptr %ehselector.slot, align 4
  call void @_ZN7logging10LogMessageD1Ev(ptr noundef nonnull align 8 dereferenceable(404) %ref.tmp) #6
  br label %eh.resume

if.end:                                           ; preds = %invoke.cont, %if.then
  %call4 = call noundef i64 @_ZNK4base16BasicStringPieceINSt7__cxx1112basic_stringIcSt11char_traitsIcESaIcEEEE4sizeEv(ptr noundef nonnull align 8 dereferenceable(16) %nonce_prefix)
  %nonce_prefix_size_ = getelementptr inbounds %"class.net::AeadBaseDecrypter", ptr %this1, i32 0, i32 4
  %5 = load i64, ptr %nonce_prefix_size_, align 8
  %cmp = icmp ne i64 %call4, %5
  br i1 %cmp, label %if.then5, label %if.end6

if.then5:                                         ; preds = %if.end
  store i1 false, ptr %retval, align 1
  br label %return

if.end6:                                          ; preds = %if.end
  %nonce_prefix_ = getelementptr inbounds %"class.net::AeadBaseDecrypter", ptr %this1, i32 0, i32 7
  %arraydecay = getelementptr inbounds [4 x i8], ptr %nonce_prefix_, i64 0, i64 0
  %call7 = call noundef ptr @_ZNK4base16BasicStringPieceINSt7__cxx1112basic_stringIcSt11char_traitsIcESaIcEEEE4dataEv(ptr noundef nonnull align 8 dereferenceable(16) %nonce_prefix)
  %call8 = call noundef i64 @_ZNK4base16BasicStringPieceINSt7__cxx1112basic_stringIcSt11char_traitsIcESaIcEEEE4sizeEv(ptr noundef nonnull align 8 dereferenceable(16) %nonce_prefix)
  call void @llvm.memcpy.p0.p0.i64(ptr align 1 %arraydecay, ptr align 1 %call7, i64 %call8, i1 false)
  store i1 true, ptr %retval, align 1
  br label %return

return:                                           ; preds = %if.end6, %if.then5
  %6 = load i1, ptr %retval, align 1
  ret i1 %6

eh.resume:                                        ; preds = %lpad
  %exn = load ptr, ptr %exn.slot, align 8
  %sel = load i32, ptr %ehselector.slot, align 4
  %lpad.val = insertvalue { ptr, i32 } poison, ptr %exn, 0
  %lpad.val9 = insertvalue { ptr, i32 } %lpad.val, i32 %sel, 1
  resume { ptr, i32 } %lpad.val9
}