; Function Attrs: mustprogress uwtable
define dso_local noundef zeroext i1 @_ZN3net17AeadBaseDecrypter14SetNoncePrefixEN4base16BasicStringPieceINSt7__cxx1112basic_stringIcSt11char_traitsIcESaIcEEEEE(ptr nocapture noundef nonnull align 8 dereferenceable(96) %this, ptr %nonce_prefix.coerce0, i64 %nonce_prefix.coerce1) unnamed_addr #0 align 2 personality ptr @__gxx_personality_v0 {
if.end:
  %nonce_prefix = alloca %"class.base::BasicStringPiece", align 8
  store ptr %nonce_prefix.coerce0, ptr %nonce_prefix, align 8
  %0 = getelementptr inbounds i8, ptr %nonce_prefix, i64 8
  store i64 %nonce_prefix.coerce1, ptr %0, align 8
  %call4 = call noundef i64 @_ZNK4base16BasicStringPieceINSt7__cxx1112basic_stringIcSt11char_traitsIcESaIcEEEE4sizeEv(ptr noundef nonnull align 8 dereferenceable(16) %nonce_prefix)
  %nonce_prefix_size_ = getelementptr inbounds i8, ptr %this, i64 32
  %1 = load i64, ptr %nonce_prefix_size_, align 8
  %cmp.not = icmp eq i64 %call4, %1
  br i1 %cmp.not, label %if.end6, label %return

if.end6:                                          ; preds = %if.end
  %nonce_prefix_ = getelementptr inbounds i8, ptr %this, i64 73
  %call7 = call noundef ptr @_ZNK4base16BasicStringPieceINSt7__cxx1112basic_stringIcSt11char_traitsIcESaIcEEEE4dataEv(ptr noundef nonnull align 8 dereferenceable(16) %nonce_prefix)
  %call8 = call noundef i64 @_ZNK4base16BasicStringPieceINSt7__cxx1112basic_stringIcSt11char_traitsIcESaIcEEEE4sizeEv(ptr noundef nonnull align 8 dereferenceable(16) %nonce_prefix)
  call void @llvm.memcpy.p0.p0.i64(ptr nonnull align 1 %nonce_prefix_, ptr align 1 %call7, i64 %call8, i1 false)
  br label %return

return:                                           ; preds = %if.end, %if.end6
  ret i1 %cmp.not
}